target datalayout = "e-m:e-p270:32:32-p271:32:32-p272:64:64-i64:64-i128:128-f80:128-n8:16:32:64-S128"
target triple = "x86_64-pc-linux-gnu"

%struct.VLC = type { i32, ptr, i32, i32 }

@mpc8_bands_syms = internal constant [33 x i8] c"\0D\13\0A\0B\0C\0E\0F\10\11\12\14\15\16\09\17\18\19\08\1A\1B\07\1C\05\06\1D\04\03\1E\02\1F\01 \00", align 16
@mpc8_res_syms = internal constant [34 x i8] c"\0D\0E\0C\0B\0A\09\08\07\06\0F\05\04\03\02\10\01\00\08\09\0A\0B\07\0C\06\0D\05\04\0E\03\0F\02\00\01\10", align 16
@mpc8_scfi_syms = internal constant [20 x i8] c"\00\01\03\02\01\04\00\02\03\08\0C\05\06\07\09\0D\0B\0E\0A\0F", align 16
@band_vlc = internal global %struct.VLC zeroinitializer, align 8
@mpc8_bands_len_counts = internal constant [16 x i8] c"\01\01\01\00\02\02\01\03\02\03\04\0B\02\00\00\00", align 16
@q1_vlc = internal global %struct.VLC zeroinitializer, align 8
@mpc8_q1_len_counts = internal constant [16 x i8] c"\00\00\05\05\01\01\01\01\01\01\01\02\00\00\00\00", align 16
@q9up_vlc = internal global %struct.VLC zeroinitializer, align 8
@mpc8_q9up_len_counts = internal constant [16 x i8] c"\00\00\00\00\00\02&\86G\09\02\00\00\00\00\00", align 16
@scfi_vlc = internal global [2 x %struct.VLC] zeroinitializer, align 16
@dscf_vlc = internal global [2 x %struct.VLC] zeroinitializer, align 16
@mpc8_dscf_len_counts = internal constant [2 x [16 x i8]] [[16 x i8] c"\00\00\03\06\03\04\05\07\07\09\06\05\03\06\00\00", [16 x i8] c"\00\00\05\03\03\02\03\04\05\07\07\09\06\05\06\00"], align 16
@res_vlc = internal global [2 x %struct.VLC] zeroinitializer, align 16
@mpc8_res_len_counts = internal constant [2 x [16 x i8]] [[16 x i8] c"\01\01\01\01\01\01\01\01\01\01\01\01\01\01\01\02", [16 x i8] c"\00\03\01\01\01\01\01\01\01\01\01\01\00\04\00\00"], align 16
@q2_vlc = internal global [2 x %struct.VLC] zeroinitializer, align 16
@mpc8_q2_len_counts = internal constant [2 x [16 x i8]] [[16 x i8] c"\00\00\01\06\00\11\09\18\18\09\1B\04\04\00\00\00", [16 x i8] c"\00\00\00\01\10\0A\060\09\1B\04\04\00\00\00\00"], align 16
@q3_vlc = internal global [2 x %struct.VLC] zeroinitializer, align 16
@mpc8_q34_len_counts = internal constant [2 x [16 x i8]] [[16 x i8] c"\00\00\01\06\06\0B\0D\08\04\00\00\00\00\00\00\00", [16 x i8] c"\00\00\00\01\0C\17\0E\13\08\04\00\00\00\00\00\00"], align 16
@quant_vlc = internal global [4 x [2 x %struct.VLC]] zeroinitializer, align 16

; Function Attrs: cold nounwind optsize uwtable
define internal void @mpc8_init_static() #0 {
  %1 = alloca ptr, align 8
  %2 = alloca ptr, align 8
  %3 = alloca ptr, align 8
  %4 = alloca ptr, align 8
  %5 = alloca ptr, align 8
  %6 = alloca i32, align 4
  %7 = alloca i32, align 4
  %8 = alloca i32, align 4
  %9 = alloca i32, align 4
  call void @llvm.lifetime.start.p0(i64 8, ptr %1) #9
  store ptr @mpc8_q_syms, ptr %1, align 8, !tbaa !49
  call void @llvm.lifetime.start.p0(i64 8, ptr %2) #9
  store ptr @mpc8_bands_syms, ptr %2, align 8, !tbaa !49
  call void @llvm.lifetime.start.p0(i64 8, ptr %3) #9
  store ptr @mpc8_res_syms, ptr %3, align 8, !tbaa !49
  call void @llvm.lifetime.start.p0(i64 8, ptr %4) #9
  store ptr @mpc8_scfi_syms, ptr %4, align 8, !tbaa !49
  call void @llvm.lifetime.start.p0(i64 8, ptr %5) #9
  store ptr @mpc8_dscf_syms, ptr %5, align 8, !tbaa !49
  call void @llvm.lifetime.start.p0(i64 4, ptr %6) #9
  store i32 0, ptr %6, align 4, !tbaa !38
  call void @build_vlc(ptr noundef @band_vlc, ptr noundef %6, ptr noundef @mpc8_bands_len_counts, ptr noundef %2, i32 noundef 0) #11
  call void @build_vlc(ptr noundef @q1_vlc, ptr noundef %6, ptr noundef @mpc8_q1_len_counts, ptr noundef %1, i32 noundef 0) #11
  call void @build_vlc(ptr noundef @q9up_vlc, ptr noundef %6, ptr noundef @mpc8_q9up_len_counts, ptr noundef %1, i32 noundef 0) #11
  call void @llvm.lifetime.start.p0(i64 4, ptr %7) #9
  store i32 0, ptr %7, align 4, !tbaa !38
  br label %10

10:                                               ; preds = %79, %0
  %11 = load i32, ptr %7, align 4, !tbaa !38
  %12 = icmp slt i32 %11, 2
  br i1 %12, label %14, label %13

13:                                               ; preds = %10
  store i32 2, ptr %8, align 4
  call void @llvm.lifetime.end.p0(i64 4, ptr %7) #9
  br label %82

14:                                               ; preds = %10
  %15 = load i32, ptr %7, align 4, !tbaa !38
  %16 = sext i32 %15 to i64
  %17 = getelementptr inbounds [2 x %struct.VLC], ptr @scfi_vlc, i64 0, i64 %16
  %18 = load i32, ptr %7, align 4, !tbaa !38
  %19 = sext i32 %18 to i64
  %20 = getelementptr inbounds [2 x [16 x i8]], ptr @mpc8_scfi_len_counts, i64 0, i64 %19
  %21 = getelementptr inbounds [16 x i8], ptr %20, i64 0, i64 0
  call void @build_vlc(ptr noundef %17, ptr noundef %6, ptr noundef %21, ptr noundef %4, i32 noundef 0) #11
  %22 = load i32, ptr %7, align 4, !tbaa !38
  %23 = sext i32 %22 to i64
  %24 = getelementptr inbounds [2 x %struct.VLC], ptr @dscf_vlc, i64 0, i64 %23
  %25 = load i32, ptr %7, align 4, !tbaa !38
  %26 = sext i32 %25 to i64
  %27 = getelementptr inbounds [2 x [16 x i8]], ptr @mpc8_dscf_len_counts, i64 0, i64 %26
  %28 = getelementptr inbounds [16 x i8], ptr %27, i64 0, i64 0
  call void @build_vlc(ptr noundef %24, ptr noundef %6, ptr noundef %28, ptr noundef %5, i32 noundef 0) #11
  %29 = load i32, ptr %7, align 4, !tbaa !38
  %30 = sext i32 %29 to i64
  %31 = getelementptr inbounds [2 x %struct.VLC], ptr @res_vlc, i64 0, i64 %30
  %32 = load i32, ptr %7, align 4, !tbaa !38
  %33 = sext i32 %32 to i64
  %34 = getelementptr inbounds [2 x [16 x i8]], ptr @mpc8_res_len_counts, i64 0, i64 %33
  %35 = getelementptr inbounds [16 x i8], ptr %34, i64 0, i64 0
  call void @build_vlc(ptr noundef %31, ptr noundef %6, ptr noundef %35, ptr noundef %3, i32 noundef 0) #11
  %36 = load i32, ptr %7, align 4, !tbaa !38
  %37 = sext i32 %36 to i64
  %38 = getelementptr inbounds [2 x %struct.VLC], ptr @q2_vlc, i64 0, i64 %37
  %39 = load i32, ptr %7, align 4, !tbaa !38
  %40 = sext i32 %39 to i64
  %41 = getelementptr inbounds [2 x [16 x i8]], ptr @mpc8_q2_len_counts, i64 0, i64 %40
  %42 = getelementptr inbounds [16 x i8], ptr %41, i64 0, i64 0
  call void @build_vlc(ptr noundef %38, ptr noundef %6, ptr noundef %42, ptr noundef %1, i32 noundef 0) #11
  %43 = load i32, ptr %7, align 4, !tbaa !38
  %44 = sext i32 %43 to i64
  %45 = getelementptr inbounds [2 x %struct.VLC], ptr @q3_vlc, i64 0, i64 %44
  %46 = load i32, ptr %7, align 4, !tbaa !38
  %47 = sext i32 %46 to i64
  %48 = getelementptr inbounds [2 x [16 x i8]], ptr @mpc8_q34_len_counts, i64 0, i64 %47
  %49 = getelementptr inbounds [16 x i8], ptr %48, i64 0, i64 0
  %50 = load i32, ptr %7, align 4, !tbaa !38
  %51 = mul nsw i32 16, %50
  %52 = sub nsw i32 -48, %51
  call void @build_vlc(ptr noundef %45, ptr noundef %6, ptr noundef %49, ptr noundef %1, i32 noundef %52) #11
  call void @llvm.lifetime.start.p0(i64 4, ptr %9) #9
  store i32 0, ptr %9, align 4, !tbaa !38
  br label %53

53:                                               ; preds = %75, %14
  %54 = load i32, ptr %9, align 4, !tbaa !38
  %55 = icmp slt i32 %54, 4
  br i1 %55, label %57, label %56

56:                                               ; preds = %53
  store i32 5, ptr %8, align 4
  call void @llvm.lifetime.end.p0(i64 4, ptr %9) #9
  br label %78

57:                                               ; preds = %53
  %58 = load i32, ptr %9, align 4, !tbaa !38
  %59 = sext i32 %58 to i64
  %60 = getelementptr inbounds [4 x [2 x %struct.VLC]], ptr @quant_vlc, i64 0, i64 %59
  %61 = load i32, ptr %7, align 4, !tbaa !38
  %62 = sext i32 %61 to i64
  %63 = getelementptr inbounds [2 x %struct.VLC], ptr %60, i64 0, i64 %62
  %64 = load i32, ptr %7, align 4, !tbaa !38
  %65 = sext i32 %64 to i64
  %66 = getelementptr inbounds [2 x [4 x [16 x i8]]], ptr @mpc8_q5_8_len_counts, i64 0, i64 %65
  %67 = load i32, ptr %9, align 4, !tbaa !38
  %68 = sext i32 %67 to i64
  %69 = getelementptr inbounds [4 x [16 x i8]], ptr %66, i64 0, i64 %68
  %70 = getelementptr inbounds [16 x i8], ptr %69, i64 0, i64 0
  %71 = load i32, ptr %9, align 4, !tbaa !38
  %72 = shl i32 8, %71
  %73 = sub nsw i32 %72, 1
  %74 = sub nsw i32 0, %73
  call void @build_vlc(ptr noundef %63, ptr noundef %6, ptr noundef %70, ptr noundef %1, i32 noundef %74) #11
  br label %75

75:                                               ; preds = %57
  %76 = load i32, ptr %9, align 4, !tbaa !38
  %77 = add nsw i32 %76, 1
  store i32 %77, ptr %9, align 4, !tbaa !38
  br label %53, !llvm.loop !100

78:                                               ; preds = %56
  br label %79

79:                                               ; preds = %78
  %80 = load i32, ptr %7, align 4, !tbaa !38
  %81 = add nsw i32 %80, 1
  store i32 %81, ptr %7, align 4, !tbaa !38
  br label %10, !llvm.loop !101

82:                                               ; preds = %13
  call void @ff_mpa_synth_init_fixed()
  call void @llvm.lifetime.end.p0(i64 4, ptr %6) #9
  call void @llvm.lifetime.end.p0(i64 8, ptr %5) #9
  call void @llvm.lifetime.end.p0(i64 8, ptr %4) #9
  call void @llvm.lifetime.end.p0(i64 8, ptr %3) #9
  call void @llvm.lifetime.end.p0(i64 8, ptr %2) #9
  call void @llvm.lifetime.end.p0(i64 8, ptr %1) #9
  ret void
}