; Function Attrs: cold nounwind optsize uwtable
define internal void @mpc8_init_static() #0 {
  %1 = alloca ptr, align 8
  %2 = alloca ptr, align 8
  %3 = alloca ptr, align 8
  %4 = alloca ptr, align 8
  %5 = alloca ptr, align 8
  %6 = alloca i32, align 4
  call void @llvm.lifetime.start.p0(i64 8, ptr nonnull %1) #8
  store ptr @mpc8_q_syms, ptr %1, align 8, !tbaa !86
  call void @llvm.lifetime.start.p0(i64 8, ptr nonnull %2) #8
  store ptr @mpc8_bands_syms, ptr %2, align 8, !tbaa !86
  call void @llvm.lifetime.start.p0(i64 8, ptr nonnull %3) #8
  store ptr @mpc8_res_syms, ptr %3, align 8, !tbaa !86
  call void @llvm.lifetime.start.p0(i64 8, ptr nonnull %4) #8
  store ptr @mpc8_scfi_syms, ptr %4, align 8, !tbaa !86
  call void @llvm.lifetime.start.p0(i64 8, ptr nonnull %5) #8
  store ptr @mpc8_dscf_syms, ptr %5, align 8, !tbaa !86
  call void @llvm.lifetime.start.p0(i64 4, ptr nonnull %6) #8
  store i32 0, ptr %6, align 4, !tbaa !49
  call fastcc void @build_vlc(ptr noundef nonnull @band_vlc, ptr noundef %6, ptr noundef nonnull @mpc8_bands_len_counts, ptr noundef %2, i32 noundef 0) #9
  call fastcc void @build_vlc(ptr noundef nonnull @q1_vlc, ptr noundef %6, ptr noundef nonnull @mpc8_q1_len_counts, ptr noundef %1, i32 noundef 0) #9
  call fastcc void @build_vlc(ptr noundef nonnull @q9up_vlc, ptr noundef %6, ptr noundef nonnull @mpc8_q9up_len_counts, ptr noundef %1, i32 noundef 0) #9
  br label %8

7:                                                ; preds = %22
  tail call void @ff_mpa_synth_init_fixed() #8
  call void @llvm.lifetime.end.p0(i64 4, ptr nonnull %6) #8
  call void @llvm.lifetime.end.p0(i64 8, ptr nonnull %5) #8
  call void @llvm.lifetime.end.p0(i64 8, ptr nonnull %4) #8
  call void @llvm.lifetime.end.p0(i64 8, ptr nonnull %3) #8
  call void @llvm.lifetime.end.p0(i64 8, ptr nonnull %2) #8
  call void @llvm.lifetime.end.p0(i64 8, ptr nonnull %1) #8
  ret void

8:                                                ; preds = %0, %22
  %9 = phi i1 [ true, %0 ], [ false, %22 ]
  %indvars.iv24 = phi i64 [ 0, %0 ], [ 1, %22 ]
  %10 = getelementptr inbounds nuw [2 x %struct.VLC], ptr @scfi_vlc, i64 0, i64 %indvars.iv24
  %11 = getelementptr inbounds nuw [2 x [16 x i8]], ptr @mpc8_scfi_len_counts, i64 0, i64 %indvars.iv24
  call fastcc void @build_vlc(ptr noundef nonnull %10, ptr noundef %6, ptr noundef nonnull %11, ptr noundef %4, i32 noundef 0) #9
  %12 = getelementptr inbounds nuw [2 x %struct.VLC], ptr @dscf_vlc, i64 0, i64 %indvars.iv24
  %13 = getelementptr inbounds nuw [2 x [16 x i8]], ptr @mpc8_dscf_len_counts, i64 0, i64 %indvars.iv24
  call fastcc void @build_vlc(ptr noundef nonnull %12, ptr noundef %6, ptr noundef nonnull %13, ptr noundef %5, i32 noundef 0) #9
  %14 = getelementptr inbounds nuw [2 x %struct.VLC], ptr @res_vlc, i64 0, i64 %indvars.iv24
  %15 = getelementptr inbounds nuw [2 x [16 x i8]], ptr @mpc8_res_len_counts, i64 0, i64 %indvars.iv24
  call fastcc void @build_vlc(ptr noundef nonnull %14, ptr noundef %6, ptr noundef nonnull %15, ptr noundef %3, i32 noundef 0) #9
  %16 = getelementptr inbounds nuw [2 x %struct.VLC], ptr @q2_vlc, i64 0, i64 %indvars.iv24
  %17 = getelementptr inbounds nuw [2 x [16 x i8]], ptr @mpc8_q2_len_counts, i64 0, i64 %indvars.iv24
  call fastcc void @build_vlc(ptr noundef nonnull %16, ptr noundef %6, ptr noundef nonnull %17, ptr noundef %1, i32 noundef 0) #9
  %18 = getelementptr inbounds nuw [2 x %struct.VLC], ptr @q3_vlc, i64 0, i64 %indvars.iv24
  %19 = getelementptr inbounds nuw [2 x [16 x i8]], ptr @mpc8_q34_len_counts, i64 0, i64 %indvars.iv24
  %indvars.iv24.tr = trunc nuw nsw i64 %indvars.iv24 to i32
  %20 = shl nuw nsw i32 %indvars.iv24.tr, 4
  %21 = sub nuw nsw i32 -48, %20
  call fastcc void @build_vlc(ptr noundef nonnull %18, ptr noundef %6, ptr noundef nonnull %19, ptr noundef %1, i32 noundef %21) #9
  br label %23

22:                                               ; preds = %23
  br i1 %9, label %8, label %7, !llvm.loop !87

23:                                               ; preds = %8, %23
  %indvars.iv = phi i64 [ 0, %8 ], [ %indvars.iv.next, %23 ]
  %24 = getelementptr inbounds nuw [4 x [2 x %struct.VLC]], ptr @quant_vlc, i64 0, i64 %indvars.iv, i64 %indvars.iv24
  %25 = getelementptr inbounds nuw [2 x [4 x [16 x i8]]], ptr @mpc8_q5_8_len_counts, i64 0, i64 %indvars.iv24, i64 %indvars.iv
  %26 = trunc nuw nsw i64 %indvars.iv to i32
  %.neg = shl nsw i32 -8, %26
  %27 = or disjoint i32 %.neg, 1
  call fastcc void @build_vlc(ptr noundef nonnull %24, ptr noundef %6, ptr noundef nonnull %25, ptr noundef %1, i32 noundef %27) #9
  %indvars.iv.next = add nuw nsw i64 %indvars.iv, 1
  %exitcond.not = icmp eq i64 %indvars.iv.next, 4
  br i1 %exitcond.not, label %22, label %23, !llvm.loop !88
}